	.file	"objects.cpp"
	.intel_syntax noprefix
	.text
.Ltext0:
	.local	_ZStL8__ioinit
	.comm	_ZStL8__ioinit,1,1
	.globl	main
	.type	main, @function
main:
.LFB971:
	.file 1 "objects.cpp"
	.loc 1 9 0
	.cfi_startproc
	.cfi_personality 0,__gxx_personality_v0
	.cfi_lsda 0,.LLSDA971
	push	ebp
	.cfi_def_cfa_offset 8
	.cfi_offset 5, -8
	mov	ebp, esp
	.cfi_def_cfa_register 5
	push	esi
	push	ebx
	and	esp, -16
	sub	esp, 80
	.cfi_offset 6, -12
	.cfi_offset 3, -16
.LBB2:
	.loc 1 11 0
	lea	eax, [esp+32]
	mov	DWORD PTR [esp], eax
.LEHB0:
	call	_ZN8subclassC1Ev
	.loc 1 12 0
	mov	eax, DWORD PTR [esp+32]
	mov	DWORD PTR [esp+56], eax
	mov	DWORD PTR [esp], 24
	call	_Znwj
.LEHE0:
	mov	ebx, eax
	mov	eax, DWORD PTR [esp+56]
	mov	DWORD PTR [esp+4], eax
	mov	DWORD PTR [esp], ebx
.LEHB1:
	call	_ZN9testclassC1E8subclass
.LEHE1:
	.loc 1 12 0 is_stmt 0 discriminator 2
	mov	DWORD PTR [esp+40], ebx
	.loc 1 13 0 is_stmt 1 discriminator 2
	mov	eax, DWORD PTR [esp+32]
	mov	DWORD PTR [esp+4], eax
	lea	eax, [esp+56]
	mov	DWORD PTR [esp], eax
.LEHB2:
	call	_ZN9testclassC1E8subclass
	.loc 1 16 0 discriminator 2
	mov	eax, DWORD PTR [esp+40]
	mov	eax, DWORD PTR [eax]
	mov	DWORD PTR [esp+44], eax
	.loc 1 17 0 discriminator 2
	mov	eax, DWORD PTR [esp+40]
	movzx	eax, BYTE PTR [eax+4]
	mov	BYTE PTR [esp+30], al
	.loc 1 18 0 discriminator 2
	mov	eax, DWORD PTR [esp+40]
	mov	eax, DWORD PTR [eax+8]
	mov	DWORD PTR [esp+36], eax
	.loc 1 21 0 discriminator 2
	mov	eax, DWORD PTR [esp+40]
	mov	DWORD PTR [esp], eax
	call	_ZN9testclass6getintEv
	mov	DWORD PTR [esp+48], eax
	.loc 1 22 0 discriminator 2
	mov	eax, DWORD PTR [esp+40]
	mov	DWORD PTR [esp], eax
	call	_ZN9testclass7getcharEv
	mov	BYTE PTR [esp+31], al
	.loc 1 24 0 discriminator 2
	call	_Z6markerv
	.loc 1 25 0 discriminator 2
	lea	eax, [esp+56]
	mov	DWORD PTR [esp], eax
	call	_ZN9testclass6getintEv
	mov	DWORD PTR [esp+52], eax
	.loc 1 27 0 discriminator 2
	mov	eax, 0
	jmp	.L5
.L4:
	mov	esi, eax
	.loc 1 12 0
	mov	DWORD PTR [esp], ebx
	call	_ZdlPv
	mov	eax, esi
	mov	DWORD PTR [esp], eax
	call	_Unwind_Resume
.LEHE2:
.L5:
.LBE2:
	.loc 1 28 0
	lea	esp, [ebp-8]
	pop	ebx
	.cfi_restore 3
	pop	esi
	.cfi_restore 6
	pop	ebp
	.cfi_restore 5
	.cfi_def_cfa 4, 4
	ret
	.cfi_endproc
.LFE971:
	.globl	__gxx_personality_v0
	.section	.gcc_except_table,"a",@progbits
.LLSDA971:
	.byte	0xff
	.byte	0xff
	.byte	0x1
	.uleb128 .LLSDACSE971-.LLSDACSB971
.LLSDACSB971:
	.uleb128 .LEHB0-.LFB971
	.uleb128 .LEHE0-.LEHB0
	.uleb128 0
	.uleb128 0
	.uleb128 .LEHB1-.LFB971
	.uleb128 .LEHE1-.LEHB1
	.uleb128 .L4-.LFB971
	.uleb128 0
	.uleb128 .LEHB2-.LFB971
	.uleb128 .LEHE2-.LEHB2
	.uleb128 0
	.uleb128 0
.LLSDACSE971:
	.text
	.size	main, .-main
	.type	_Z41__static_initialization_and_destruction_0ii, @function
_Z41__static_initialization_and_destruction_0ii:
.LFB972:
	.loc 1 28 0
	.cfi_startproc
	push	ebp
	.cfi_def_cfa_offset 8
	.cfi_offset 5, -8
	mov	ebp, esp
	.cfi_def_cfa_register 5
	sub	esp, 24
	.loc 1 28 0
	cmp	DWORD PTR [ebp+8], 1
	jne	.L6
	.loc 1 28 0 is_stmt 0 discriminator 1
	cmp	DWORD PTR [ebp+12], 65535
	jne	.L6
	.file 2 "/usr/include/c++/4.8/iostream"
	.loc 2 74 0 is_stmt 1
	mov	DWORD PTR [esp], OFFSET FLAT:_ZStL8__ioinit
	call	_ZNSt8ios_base4InitC1Ev
	mov	DWORD PTR [esp+8], OFFSET FLAT:__dso_handle
	mov	DWORD PTR [esp+4], OFFSET FLAT:_ZStL8__ioinit
	mov	DWORD PTR [esp], OFFSET FLAT:_ZNSt8ios_base4InitD1Ev
	call	__cxa_atexit
.L6:
	.loc 1 28 0
	leave
	.cfi_restore 5
	.cfi_def_cfa 4, 4
	ret
	.cfi_endproc
.LFE972:
	.size	_Z41__static_initialization_and_destruction_0ii, .-_Z41__static_initialization_and_destruction_0ii
	.type	_GLOBAL__sub_I_main, @function
_GLOBAL__sub_I_main:
.LFB973:
	.loc 1 28 0
	.cfi_startproc
	push	ebp
	.cfi_def_cfa_offset 8
	.cfi_offset 5, -8
	mov	ebp, esp
	.cfi_def_cfa_register 5
	sub	esp, 24
	.loc 1 28 0
	mov	DWORD PTR [esp+4], 65535
	mov	DWORD PTR [esp], 1
	call	_Z41__static_initialization_and_destruction_0ii
	leave
	.cfi_restore 5
	.cfi_def_cfa 4, 4
	ret
	.cfi_endproc
.LFE973:
	.size	_GLOBAL__sub_I_main, .-_GLOBAL__sub_I_main
	.section	.init_array,"aw"
	.align 4
	.long	_GLOBAL__sub_I_main
	.text
.Letext0:
	.file 3 "/usr/include/stdio.h"
	.file 4 "/usr/lib/gcc/i686-linux-gnu/4.8/include/stdarg.h"
	.file 5 "/usr/lib/gcc/i686-linux-gnu/4.8/include/stddef.h"
	.file 6 "/usr/include/wchar.h"
	.file 7 "/usr/include/c++/4.8/cwchar"
	.file 8 "/usr/include/i386-linux-gnu/c++/4.8/bits/c++config.h"
	.file 9 "/usr/include/c++/4.8/clocale"
	.file 10 "/usr/include/c++/4.8/bits/ios_base.h"
	.file 11 "/usr/include/c++/4.8/cwctype"
	.file 12 "/usr/include/time.h"
	.file 13 "/usr/include/c++/4.8/ext/new_allocator.h"
	.file 14 "/usr/include/c++/4.8/ext/numeric_traits.h"
	.file 15 "/usr/include/c++/4.8/debug/debug.h"
	.file 16 "/usr/include/locale.h"
	.file 17 "/usr/include/i386-linux-gnu/bits/types.h"
	.file 18 "/usr/include/i386-linux-gnu/c++/4.8/bits/atomic_word.h"
	.file 19 "/usr/include/wctype.h"
	.file 20 "subclass.h"
	.file 21 "testclass.h"
	.file 22 "<built-in>"
	.section	.note.GNU-stack,"",@progbits
